(lp0
(dp1
S'end'
p2
I872
sS'job_id'
p3
S'FF55A4A8-9465-11E4-AD4C-B3C86EECAC22'
p4
sS'sequence'
p5
S'VTNNQLAHNLAVTFDRVNLGNRVFIKNLKQIQESILELNTRVDTIEVALRRLTKTFRESKPLTESEVRKLVEEIAQQPKIVEKQALEISQQLEQKLEKVEKLLHKLDQWVGQ'
p6
sS'start'
p7
I533
sS'result_url'
p8
S'http://pfam.xfam.org/search/sequence/resultset/FF55A4A8-9465-11E4-AD4C-B3C86EECAC22?output=xml'
p9
sS'domains'
p10
S'{"length":112,"regions":[{"modelStart":"17","modelEnd":"126","colour":"#2dcf00","endStyle":"curved","display":true,"end":"99","startStyle":"jagged","aliEnd":"99","modelLength":"126","text":"DUF1319","href":"/family/PF07028.6","metadata":{"scoreName":"e-value","score":"1.5e-29","description":"Protein of unknown function (DUF1319)","accession":"PF07028.6","end":"99","database":"pfam","aliEnd":"99","identifier":"DUF1319","type":"Family","aliStart":"1","start":"1"},"type":"pfama","aliStart":"1","start":"1"}],"markups":[],"motifs":[]}'
p11
sS'domain_graphic_path'
p12
S'./part_DomainsInProtein/CacaoSwollenShootVirus/domain_graphic1.png'
p13
sa(dp14
g2
I1267
sg3
S'008D96AA-9466-11E4-AD4C-B3C86EECAC22'
p15
sg5
S'MTDSPAYQEALKEAEKVDPPAVGITTSTGVTAVQGFKTVIKQNNVQICLLAVIADKLEELIQDQKKARKDKAKEVAIPEDLITKLQGLSIQEKGEAKVTRKPEPKGTLFGFKDPYKILAAEKAKITLKPVKE'
p16
sg7
I868
sg8
S'http://pfam.xfam.org/search/sequence/resultset/008D96AA-9466-11E4-AD4C-B3C86EECAC22?output=xml'
p17
sg10
S'{"length":132,"regions":[],"markups":[],"motifs":[]}'
p18
sg12
S'./part_DomainsInProtein/CacaoSwollenShootVirus/domain_graphic2.png'
p19
sa(dp20
g2
I6776
sg3
S'0237FA0E-9466-11E4-975D-0983298E2F76'
p21
sg5
S'MSRARPQHPVPSVTTTTSEQNREGPLYEDQIRDYRRGQRRIFNLRRRARRLRRSMMGSRYQETLEQEIDPQTTLRLSMQERARLVPAEVLYRSRRDTVHHRVYTHRSEESVLCVGGSQVDRAFIQPESLEQLQRTGMSFIHIGILQVRIQILHRQEEGTMALVVFRDNRWSGDQSIFAQMEIDLTKGSQLVFVIPDTMMTIGDFARNVQLSILTRGYENWQNGEANLLITRGMTGRLSNTPNVAFAYQIASATDYLASHGVKAIAGKKMNLQHLRNQQWILRPPQTDITPMQPRSVETRNLVDGSISIRFHDYEAATSASRPHYNEEDEEVESETESEIREHTIAVWIGEEEIPDQTGRKKVWEESSNGNGRFFRYYTPPPTFEGQIIATGWGSDDDNEKTPPKWDESPDEEGPTEPIWDQEEEEDEYDPNVYRAYLQKEEDEWQEITASLREEMEYPKRRPQTEMAFSETVDYTPPGDTMMTPVGYPPASSSRSTVTTPSRPPLFEGRTTHVPRFLKRDEYTEWWQLPSSQGTTGALFVMPKQMGLFHEVFSRWESITKNYVAAQGFTDPTEKMEFMENLLGETEKLTWIQWRMNYEAEYQQLLTQADGRQGTQNILSQIKRIFSLEDPASGSTRIQDAAYRDLERLTCHNIKDIVQFLNDYGRLAAKSGRLFLGTELSEKLWMKMPPELGHRMKEAFQKEYSGNEVGVFPRILFAYRYLEQECKDAAFKRSLKSLSFCKDMPLTGYYDKTSKYGMRKSRTYKGKPHASHARVEKRKHLIRNKKCKCYLCGDEGHFARECPNQRRDVKRVAIFEGIDLPEGFDIVSVEEGEEESDAIYSISENEDGELDTEVVHEKVFMMREEDQSYWLGKTNHWTAMVRVSSQQYHCMHQWEHNKEILVVAHINCHFCKQPTQLRSRIHCPTCQLTSCFMCAPIYCNMIVQQQPKPPVPFNTHTLLQQQAAYIQWLEKENQRLTEAVEFYKKEAEELRLERDLEQDRRSLEPTLLDKGKKVQILDPDEDQHTAYLEEDTISRVIGHTVEQQEVRKPVKKGNMLYNLDVVLHIPEVGRPIKVKAILDTGATTCCININSVPQTAIEQNTFLVQFRGINSTQSVDKKLKYGRMTISNHQFRIPYCYAFPLSLGDGIEMILGCNFIRGMYGGLRIEGHTITFYKNVTTIQTRLAAVMVGGTTASELGGGEESKSDSESMFDLSETEEFDSETHQQIVSHVAAQAQQQKLDPKLQQLMVQLQDQGFIGENPMQHWAKNKILCRLDIKNPDLIIEDKPIKHLTPAMEKQFQKHIKALLDIGVIRPSKSKHRTTAFIVESGTVIDPVTKKTIHGKERLVFNYKRLNDNTEKDQYSLPGIQTILKRVGNKKVFSKFDLKSGFHQVAMAEESIPWTAFWVPQGLYEWLVMPFGLKNAPAVFQRKMDQCFKGTEEFIAVYIDDILVFSENMAEHTKHIGIMLKICQENGLVLSPSKICLAQREIEFLGTVISQGQMKLQAHVIKKIVNKANIELETTKGLRSFLGLLNYARIYIPNLGRKLSPLYAKTSPTGEKRFNRQDWHLIKEIKDMVQKLPNLAIPPARCYIIIESDGCMEGWGAVCKWKLAKEDSRTTEKICAYASGKFGVVKSTIDAEIYALIKALESFKIFYLDKKHLVVRTDCQAIVTFYNKTSTHKPSRIRWITFSDYITGLGVPVTIEHIDGKENQLADTLSRLVYTTWNQSQTHQPEEEELEKSQHLSFAGLAIPIAWPMMGSYNKRRTPLLTGQSLWQRNKPSQHSSTASKSRQPRKHYWPYVTYRAYSTSRETIWPLLPLETTGLATDCQLPNKTQPP'
p22
sg7
I1271
sg8
S'http://pfam.xfam.org/search/sequence/resultset/0237FA0E-9466-11E4-975D-0983298E2F76?output=xml'
p23
sg10
S'{"length":1834,"regions":[{"modelStart":"59","modelEnd":"164","colour":"#2dcf00","endStyle":"jagged","display":true,"end":"241","startStyle":"jagged","aliEnd":"228","modelLength":"189","text":"MP","href":"/family/PF01107.13","metadata":{"scoreName":"e-value","score":"4.6e-05","description":"Viral movement protein (MP)","accession":"PF01107.13","end":"241","database":"pfam","aliEnd":"228","identifier":"MP","type":"Family","aliStart":"127","start":"86"},"type":"pfama","aliStart":"127","start":"86"},{"modelStart":"1","modelEnd":"18","colour":"#ff5353","endStyle":"straight","display":true,"end":"803","startStyle":"straight","aliEnd":"803","modelLength":"18","text":"zf-CCHC","href":"/family/PF00098.18","metadata":{"scoreName":"e-value","score":"2.5e-05","description":"Zinc knuckle","accession":"PF00098.18","end":"803","database":"pfam","aliEnd":"803","identifier":"zf-CCHC","type":"Domain","aliStart":"786","start":"786"},"type":"pfama","aliStart":"786","start":"786"},{"modelStart":"16","modelEnd":"99","colour":"#5b5bff","endStyle":"jagged","display":true,"end":"1163","startStyle":"jagged","aliEnd":"1162","modelLength":"100","text":"RVP","href":"/family/PF00077.15","metadata":{"scoreName":"e-value","score":"4.3e-06","description":"Retroviral aspartyl protease","accession":"PF00077.15","end":"1163","database":"pfam","aliEnd":"1162","identifier":"RVP","type":"Domain","aliStart":"1072","start":"1046"},"type":"pfama","aliStart":"1072","start":"1046"},{"modelStart":"2","modelEnd":"214","colour":"#ebd61d","endStyle":"curved","display":true,"end":"1494","startStyle":"jagged","aliEnd":"1494","modelLength":"214","text":"RVT_1","href":"/family/PF00078.22","metadata":{"scoreName":"e-value","score":"5.8e-29","description":"Reverse transcriptase (RNA-dependent DNA polymerase)","accession":"PF00078.22","end":"1494","database":"pfam","aliEnd":"1494","identifier":"RVT_1","type":"Family","aliStart":"1334","start":"1333"},"type":"pfama","aliStart":"1334","start":"1333"}],"markups":[],"motifs":[]}'
p24
sg12
S'./part_DomainsInProtein/CacaoSwollenShootVirus/domain_graphic3.png'
p25
sa.